; Function Attrs: mustprogress uwtable
define hidden void @_ZN4cvc58internal3smt10Assertions13assertFormulaERKNS0_12NodeTemplateILb1EEE(ptr noundef nonnull align 8 dereferenceable(272) %this, ptr noundef nonnull align 8 dereferenceable(8) %n) local_unnamed_addr #3 align 2 personality ptr @__gxx_personality_v0 {
entry:
  %agg.tmp = alloca %"class.cvc5::internal::NodeTemplate", align 8
  tail call void @_ZN4cvc58internal3smt10Assertions13ensureBooleanERKNS0_12NodeTemplateILb1EEE(ptr noundef nonnull align 8 dereferenceable(272) %this, ptr noundef nonnull align 8 dereferenceable(8) %n)
  %call = tail call noundef nonnull align 8 dereferenceable(392) ptr @_ZNK4cvc58internal6EnvObj7optionsEv(ptr noundef nonnull align 8 dereferenceable(16) %this)
  %base = getelementptr inbounds i8, ptr %call, i64 208
  %0 = load ptr, ptr %base, align 8
  %inputLanguage = getelementptr inbounds i8, ptr %0, i64 140
  %1 = load i32, ptr %inputLanguage, align 4
  %cmp.i = icmp eq i32 %1, 1
  %2 = load ptr, ptr %n, align 8
  store ptr %2, ptr %agg.tmp, align 8
  call void @_ZN4cvc58internal3smt10Assertions10addFormulaENS0_12NodeTemplateILb0EEEbb(ptr noundef nonnull align 8 dereferenceable(272) %this, ptr noundef nonnull %agg.tmp, i1 noundef zeroext false, i1 noundef zeroext %cmp.i)
  ret void
}